libmygpo-qt5.so.1 libmygpo-qt5-1 #MINVER#
 _ZN10QArrayData10sharedNullEv@Base 1.0.9
 _ZN10QArrayData4dataEv@Base 1.0.9
 _ZN10QByteArrayC1ERKS_@Base 1.0.9
 _ZN10QByteArrayC1Ev@Base 1.0.9
 _ZN10QByteArrayC2ERKS_@Base 1.0.9
 _ZN10QByteArrayC2Ev@Base 1.0.9
 _ZN10QByteArrayD1Ev@Base 1.0.9
 _ZN10QByteArrayD2Ev@Base 1.0.9
 _ZN10QByteArrayaSEOS_@Base 1.0.9
 _ZN10QByteArraypLERKS_@Base 1.0.9
 _ZN12QMapNodeBase25callDestructorIfNecessaryI7QStringEENSt9enable_ifIXsr9QTypeInfoIT_E9isComplexEvE4typeERS4_@Base 1.0.9
 _ZN12QMapNodeBase25callDestructorIfNecessaryI8QVariantEENSt9enable_ifIXsr9QTypeInfoIT_E9isComplexEvE4typeERS4_@Base 1.0.9
 _ZN4QUrlaSEOS_@Base 1.0.9
 _ZN5QCharC1E11QLatin1Char@Base 1.0.9
 _ZN5QCharC2E11QLatin1Char@Base 1.0.9
 _ZN5mygpo10ApiRequest10searchOpmlERK7QString@Base 1.0.9
 _ZN5mygpo10ApiRequest10toplistTxtEj@Base 1.0.9
 _ZN5mygpo10ApiRequest10toplistXmlEj@Base 1.0.9
 _ZN5mygpo10ApiRequest11episodeDataERK4QUrlS3_@Base 1.0.9
 _ZN5mygpo10ApiRequest11listDevicesERK7QString@Base 1.0.9
 _ZN5mygpo10ApiRequest11podcastDataERK4QUrl@Base 1.0.9
 _ZN5mygpo10ApiRequest11suggestionsEj@Base 1.0.9
 _ZN5mygpo10ApiRequest11toplistOpmlEj@Base 1.0.9
 _ZN5mygpo10ApiRequest12renameDeviceERK7QStringS3_S3_NS_6Device4TypeE@Base 1.0.9
 _ZN5mygpo10ApiRequest13deviceUpdatesERK7QStringS3_x@Base 1.0.9
 _ZN5mygpo10ApiRequest13podcastsOfTagEjRK7QString@Base 1.0.9
 _ZN5mygpo10ApiRequest14deviceSettingsERK7QStringS3_@Base 1.0.9
 _ZN5mygpo10ApiRequest14episodeActionsERK7QStringb@Base 1.0.9
 _ZN5mygpo10ApiRequest14suggestionsTxtEj@Base 1.0.9
 _ZN5mygpo10ApiRequest15accountSettingsERK7QString@Base 1.0.9
 _ZN5mygpo10ApiRequest15episodeSettingsERK7QStringS3_S3_@Base 1.0.9
 _ZN5mygpo10ApiRequest15podcastSettingsERK7QStringS3_@Base 1.0.9
 _ZN5mygpo10ApiRequest15suggestionsOpmlEj@Base 1.0.9
 _ZN5mygpo10ApiRequest16favoriteEpisodesERK7QString@Base 1.0.9
 _ZN5mygpo10ApiRequest17setDeviceSettingsERK7QStringS3_R4QMapIS1_8QVariantERK5QListIS1_E@Base 1.0.9
 _ZN5mygpo10ApiRequest18setAccountSettingsERK7QStringR4QMapIS1_8QVariantERK5QListIS1_E@Base 1.0.9
 _ZN5mygpo10ApiRequest18setEpisodeSettingsERK7QStringS3_S3_R4QMapIS1_8QVariantERK5QListIS1_E@Base 1.0.9
 _ZN5mygpo10ApiRequest18setPodcastSettingsERK7QStringS3_R4QMapIS1_8QVariantERK5QListIS1_E@Base 1.0.9
 _ZN5mygpo10ApiRequest20uploadEpisodeActionsERK7QStringRK5QListI14QSharedPointerINS_13EpisodeActionEEE@Base 1.0.9
 _ZN5mygpo10ApiRequest22addRemoveSubscriptionsERK7QStringS3_RK5QListI4QUrlES8_@Base 1.0.9
 _ZN5mygpo10ApiRequest22episodeActionsByDeviceERK7QStringS3_b@Base 1.0.9
 _ZN5mygpo10ApiRequest23episodeActionsByPodcastERK7QStringS3_b@Base 1.0.9
 _ZN5mygpo10ApiRequest24downloadSubscriptionsTxtERK7QStringS3_@Base 1.0.9
 _ZN5mygpo10ApiRequest25downloadSubscriptionsJsonERK7QStringS3_@Base 1.0.9
 _ZN5mygpo10ApiRequest25downloadSubscriptionsOpmlERK7QStringS3_@Base 1.0.9
 _ZN5mygpo10ApiRequest25episodeActionsByTimestampERK7QStringy@Base 1.0.9
 _ZN5mygpo10ApiRequest27deviceSynchronizationStatusERK7QString@Base 1.0.9
 _ZN5mygpo10ApiRequest30setDeviceSynchronizationStatusERK7QStringRK5QListI11QStringListERKS4_IS1_E@Base 1.0.9
 _ZN5mygpo10ApiRequest34episodeActionsByDeviceAndTimestampERK7QStringS3_y@Base 1.0.9
 _ZN5mygpo10ApiRequest35episodeActionsByPodcastAndTimestampERK7QStringS3_y@Base 1.0.9
 _ZN5mygpo10ApiRequest6searchERK7QString@Base 1.0.9
 _ZN5mygpo10ApiRequest7topTagsEj@Base 1.0.9
 _ZN5mygpo10ApiRequest7toplistEj@Base 1.0.9
 _ZN5mygpo10ApiRequest9searchTxtERK7QString@Base 1.0.9
 _ZN5mygpo10ApiRequest9searchXmlERK7QString@Base 1.0.9
 _ZN5mygpo10ApiRequestC1EP21QNetworkAccessManager@Base 1.0.9
 _ZN5mygpo10ApiRequestC1ERK7QStringS3_P21QNetworkAccessManager@Base 1.0.9
 _ZN5mygpo10ApiRequestC2EP21QNetworkAccessManager@Base 1.0.9
 _ZN5mygpo10ApiRequestC2ERK7QStringS3_P21QNetworkAccessManager@Base 1.0.9
 _ZN5mygpo10ApiRequestD1Ev@Base 1.0.9
 _ZN5mygpo10ApiRequestD2Ev@Base 1.0.9
 _ZN5mygpo10DeviceList10parseErrorEv@Base 1.0.9
 _ZN5mygpo10DeviceList11qt_metacallEN11QMetaObject4CallEiPPv@Base 1.0.9
 _ZN5mygpo10DeviceList11qt_metacastEPKc@Base 1.0.9
 _ZN5mygpo10DeviceList12requestErrorEN13QNetworkReply12NetworkErrorE@Base 1.0.9
 _ZN5mygpo10DeviceList16staticMetaObjectE@Base 1.0.9
 _ZN5mygpo10DeviceList8finishedEv@Base 1.0.9
 _ZN5mygpo10DeviceListC1EP13QNetworkReplyP7QObject@Base 1.0.9
 _ZN5mygpo10DeviceListC2EP13QNetworkReplyP7QObject@Base 1.0.9
 _ZN5mygpo10DeviceListD0Ev@Base 1.0.9
 _ZN5mygpo10DeviceListD1Ev@Base 1.0.9
 _ZN5mygpo10DeviceListD2Ev@Base 1.0.9
 _ZN5mygpo11EpisodeList10parseErrorEv@Base 1.0.9
 _ZN5mygpo11EpisodeList11qt_metacallEN11QMetaObject4CallEiPPv@Base 1.0.9
 _ZN5mygpo11EpisodeList11qt_metacastEPKc@Base 1.0.9
 _ZN5mygpo11EpisodeList12requestErrorEN13QNetworkReply12NetworkErrorE@Base 1.0.9
 _ZN5mygpo11EpisodeList16staticMetaObjectE@Base 1.0.9
 _ZN5mygpo11EpisodeList8finishedEv@Base 1.0.9
 _ZN5mygpo11EpisodeListC1EP13QNetworkReplyP7QObject@Base 1.0.9
 _ZN5mygpo11EpisodeListC2EP13QNetworkReplyP7QObject@Base 1.0.9
 _ZN5mygpo11EpisodeListD0Ev@Base 1.0.9
 _ZN5mygpo11EpisodeListD1Ev@Base 1.0.9
 _ZN5mygpo11EpisodeListD2Ev@Base 1.0.9
 _ZN5mygpo11PodcastList10parseErrorEv@Base 1.0.9
 _ZN5mygpo11PodcastList11qt_metacallEN11QMetaObject4CallEiPPv@Base 1.0.9
 _ZN5mygpo11PodcastList11qt_metacastEPKc@Base 1.0.9
 _ZN5mygpo11PodcastList12requestErrorEN13QNetworkReply12NetworkErrorE@Base 1.0.9
 _ZN5mygpo11PodcastList16staticMetaObjectE@Base 1.0.9
 _ZN5mygpo11PodcastList8finishedEv@Base 1.0.9
 _ZN5mygpo11PodcastListC1EP13QNetworkReplyP7QObject@Base 1.0.9
 _ZN5mygpo11PodcastListC2EP13QNetworkReplyP7QObject@Base 1.0.9
 _ZN5mygpo11PodcastListD0Ev@Base 1.0.9
 _ZN5mygpo11PodcastListD1Ev@Base 1.0.9
 _ZN5mygpo11PodcastListD2Ev@Base 1.0.9
 _ZN5mygpo13DeviceUpdates10parseErrorEv@Base 1.0.9
 _ZN5mygpo13DeviceUpdates11qt_metacallEN11QMetaObject4CallEiPPv@Base 1.0.9
 _ZN5mygpo13DeviceUpdates11qt_metacastEPKc@Base 1.0.9
 _ZN5mygpo13DeviceUpdates12requestErrorEN13QNetworkReply12NetworkErrorE@Base 1.0.9
 _ZN5mygpo13DeviceUpdates16staticMetaObjectE@Base 1.0.9
 _ZN5mygpo13DeviceUpdates8finishedEv@Base 1.0.9
 _ZN5mygpo13DeviceUpdatesC1EP13QNetworkReplyP7QObject@Base 1.0.9
 _ZN5mygpo13DeviceUpdatesC2EP13QNetworkReplyP7QObject@Base 1.0.9
 _ZN5mygpo13DeviceUpdatesD0Ev@Base 1.0.9
 _ZN5mygpo13DeviceUpdatesD1Ev@Base 1.0.9
 _ZN5mygpo13DeviceUpdatesD2Ev@Base 1.0.9
 _ZN5mygpo13EpisodeAction11qt_metacallEN11QMetaObject4CallEiPPv@Base 1.0.9
 _ZN5mygpo13EpisodeAction11qt_metacastEPKc@Base 1.0.9
 _ZN5mygpo13EpisodeAction16staticMetaObjectE@Base 1.0.9
 _ZN5mygpo13EpisodeActionC1ERK4QUrlS3_RK7QStringNS0_10ActionTypeEyP7QObject@Base 1.0.9
 _ZN5mygpo13EpisodeActionC1ERK4QUrlS3_RK7QStringNS0_10ActionTypeEyyP7QObject@Base 1.0.9
 _ZN5mygpo13EpisodeActionC1ERK4QUrlS3_RK7QStringNS0_10ActionTypeEyyyyP7QObject@Base 1.0.9
 _ZN5mygpo13EpisodeActionC1ERK8QVariantP7QObject@Base 1.0.9
 _ZN5mygpo13EpisodeActionC2ERK4QUrlS3_RK7QStringNS0_10ActionTypeEyP7QObject@Base 1.0.9
 _ZN5mygpo13EpisodeActionC2ERK4QUrlS3_RK7QStringNS0_10ActionTypeEyyP7QObject@Base 1.0.9
 _ZN5mygpo13EpisodeActionC2ERK4QUrlS3_RK7QStringNS0_10ActionTypeEyyyyP7QObject@Base 1.0.9
 _ZN5mygpo13EpisodeActionC2ERK8QVariantP7QObject@Base 1.0.9
 _ZN5mygpo13EpisodeActionD0Ev@Base 1.0.9
 _ZN5mygpo13EpisodeActionD1Ev@Base 1.0.9
 _ZN5mygpo13EpisodeActionD2Ev@Base 1.0.9
 _ZN5mygpo15AddRemoveResult10parseErrorEv@Base 1.0.9
 _ZN5mygpo15AddRemoveResult11qt_metacallEN11QMetaObject4CallEiPPv@Base 1.0.9
 _ZN5mygpo15AddRemoveResult11qt_metacastEPKc@Base 1.0.9
 _ZN5mygpo15AddRemoveResult12requestErrorEN13QNetworkReply12NetworkErrorE@Base 1.0.9
 _ZN5mygpo15AddRemoveResult16staticMetaObjectE@Base 1.0.9
 _ZN5mygpo15AddRemoveResult8finishedEv@Base 1.0.9
 _ZN5mygpo15AddRemoveResultC1EP13QNetworkReplyP7QObject@Base 1.0.9
 _ZN5mygpo15AddRemoveResultC2EP13QNetworkReplyP7QObject@Base 1.0.9
 _ZN5mygpo15AddRemoveResultD0Ev@Base 1.0.9
 _ZN5mygpo15AddRemoveResultD1Ev@Base 1.0.9
 _ZN5mygpo15AddRemoveResultD2Ev@Base 1.0.9
 _ZN5mygpo16DeviceSyncResult10parseErrorEv@Base 1.0.9
 _ZN5mygpo16DeviceSyncResult11qt_metacallEN11QMetaObject4CallEiPPv@Base 1.0.9
 _ZN5mygpo16DeviceSyncResult11qt_metacastEPKc@Base 1.0.9
 _ZN5mygpo16DeviceSyncResult12requestErrorEN13QNetworkReply12NetworkErrorE@Base 1.0.9
 _ZN5mygpo16DeviceSyncResult16staticMetaObjectE@Base 1.0.9
 _ZN5mygpo16DeviceSyncResult8finishedEv@Base 1.0.9
 _ZN5mygpo16DeviceSyncResultC1EP13QNetworkReplyP7QObject@Base 1.0.9
 _ZN5mygpo16DeviceSyncResultC2EP13QNetworkReplyP7QObject@Base 1.0.9
 _ZN5mygpo16DeviceSyncResultD0Ev@Base 1.0.9
 _ZN5mygpo16DeviceSyncResultD1Ev@Base 1.0.9
 _ZN5mygpo16DeviceSyncResultD2Ev@Base 1.0.9
 _ZN5mygpo17EpisodeActionList10parseErrorEv@Base 1.0.9
 _ZN5mygpo17EpisodeActionList11qt_metacallEN11QMetaObject4CallEiPPv@Base 1.0.9
 _ZN5mygpo17EpisodeActionList11qt_metacastEPKc@Base 1.0.9
 _ZN5mygpo17EpisodeActionList12requestErrorEN13QNetworkReply12NetworkErrorE@Base 1.0.9
 _ZN5mygpo17EpisodeActionList16staticMetaObjectE@Base 1.0.9
 _ZN5mygpo17EpisodeActionList8finishedEv@Base 1.0.9
 _ZN5mygpo17EpisodeActionListC1EP13QNetworkReplyP7QObject@Base 1.0.9
 _ZN5mygpo17EpisodeActionListC2EP13QNetworkReplyP7QObject@Base 1.0.9
 _ZN5mygpo17EpisodeActionListD0Ev@Base 1.0.9
 _ZN5mygpo17EpisodeActionListD1Ev@Base 1.0.9
 _ZN5mygpo17EpisodeActionListD2Ev@Base 1.0.9
 _ZN5mygpo3Tag11qt_metacallEN11QMetaObject4CallEiPPv@Base 1.0.9
 _ZN5mygpo3Tag11qt_metacastEPKc@Base 1.0.9
 _ZN5mygpo3Tag16staticMetaObjectE@Base 1.0.9
 _ZN5mygpo3TagC1ERK8QVariantP7QObject@Base 1.0.9
 _ZN5mygpo3TagC2ERK8QVariantP7QObject@Base 1.0.9
 _ZN5mygpo3TagD0Ev@Base 1.0.9
 _ZN5mygpo3TagD1Ev@Base 1.0.9
 _ZN5mygpo3TagD2Ev@Base 1.0.9
 _ZN5mygpo6Config10s_instanceE@Base 1.0.9
 _ZN5mygpo6Config15setMygpoBaseUrlERK4QUrl@Base 1.0.9
 _ZN5mygpo6Config18setUserAgentPrefixERK7QString@Base 1.0.9
 _ZN5mygpo6Config8instanceEv@Base 1.0.9
 _ZN5mygpo6ConfigC1Ev@Base 1.0.9
 _ZN5mygpo6ConfigC2Ev@Base 1.0.9
 _ZN5mygpo6ConfigD1Ev@Base 1.0.9
 _ZN5mygpo6ConfigD2Ev@Base 1.0.9
 _ZN5mygpo6Device11qt_metacallEN11QMetaObject4CallEiPPv@Base 1.0.9
 _ZN5mygpo6Device11qt_metacastEPKc@Base 1.0.9
 _ZN5mygpo6Device16staticMetaObjectE@Base 1.0.9
 _ZN5mygpo6DeviceC1ERK8QVariantP7QObject@Base 1.0.9
 _ZN5mygpo6DeviceC2ERK8QVariantP7QObject@Base 1.0.9
 _ZN5mygpo6DeviceD0Ev@Base 1.0.9
 _ZN5mygpo6DeviceD1Ev@Base 1.0.9
 _ZN5mygpo6DeviceD2Ev@Base 1.0.9
 _ZN5mygpo7Episode10parseErrorEv@Base 1.0.9
 _ZN5mygpo7Episode11qt_metacallEN11QMetaObject4CallEiPPv@Base 1.0.9
 _ZN5mygpo7Episode11qt_metacastEPKc@Base 1.0.9
 _ZN5mygpo7Episode12requestErrorEN13QNetworkReply12NetworkErrorE@Base 1.0.9
 _ZN5mygpo7Episode16staticMetaObjectE@Base 1.0.9
 _ZN5mygpo7Episode8finishedEv@Base 1.0.9
 _ZN5mygpo7EpisodeC1EP13QNetworkReplyP7QObject@Base 1.0.9
 _ZN5mygpo7EpisodeC1ERK8QVariantP7QObject@Base 1.0.9
 _ZN5mygpo7EpisodeC2EP13QNetworkReplyP7QObject@Base 1.0.9
 _ZN5mygpo7EpisodeC2ERK8QVariantP7QObject@Base 1.0.9
 _ZN5mygpo7EpisodeD0Ev@Base 1.0.9
 _ZN5mygpo7EpisodeD1Ev@Base 1.0.9
 _ZN5mygpo7EpisodeD2Ev@Base 1.0.9
 _ZN5mygpo7Podcast10parseErrorEv@Base 1.0.9
 _ZN5mygpo7Podcast11qt_metacallEN11QMetaObject4CallEiPPv@Base 1.0.9
 _ZN5mygpo7Podcast11qt_metacastEPKc@Base 1.0.9
 _ZN5mygpo7Podcast12requestErrorEN13QNetworkReply12NetworkErrorE@Base 1.0.9
 _ZN5mygpo7Podcast16staticMetaObjectE@Base 1.0.9
 _ZN5mygpo7Podcast8finishedEv@Base 1.0.9
 _ZN5mygpo7PodcastC1EP13QNetworkReplyP7QObject@Base 1.0.9
 _ZN5mygpo7PodcastC1ERK8QVariantP7QObject@Base 1.0.9
 _ZN5mygpo7PodcastC2EP13QNetworkReplyP7QObject@Base 1.0.9
 _ZN5mygpo7PodcastC2ERK8QVariantP7QObject@Base 1.0.9
 _ZN5mygpo7PodcastD0Ev@Base 1.0.9
 _ZN5mygpo7PodcastD1Ev@Base 1.0.9
 _ZN5mygpo7PodcastD2Ev@Base 1.0.9
 _ZN5mygpo7TagList10parseErrorEv@Base 1.0.9
 _ZN5mygpo7TagList11qt_metacallEN11QMetaObject4CallEiPPv@Base 1.0.9
 _ZN5mygpo7TagList11qt_metacastEPKc@Base 1.0.9
 _ZN5mygpo7TagList12requestErrorEN13QNetworkReply12NetworkErrorE@Base 1.0.9
 _ZN5mygpo7TagList16staticMetaObjectE@Base 1.0.9
 _ZN5mygpo7TagList8finishedEv@Base 1.0.9
 _ZN5mygpo7TagListC1EP13QNetworkReplyP7QObject@Base 1.0.9
 _ZN5mygpo7TagListC2EP13QNetworkReplyP7QObject@Base 1.0.9
 _ZN5mygpo7TagListD0Ev@Base 1.0.9
 _ZN5mygpo7TagListD1Ev@Base 1.0.9
 _ZN5mygpo7TagListD2Ev@Base 1.0.9
 _ZN5mygpo8Settings10parseErrorEv@Base 1.0.9
 _ZN5mygpo8Settings11qt_metacallEN11QMetaObject4CallEiPPv@Base 1.0.9
 _ZN5mygpo8Settings11qt_metacastEPKc@Base 1.0.9
 _ZN5mygpo8Settings12requestErrorEN13QNetworkReply12NetworkErrorE@Base 1.0.9
 _ZN5mygpo8Settings16staticMetaObjectE@Base 1.0.9
 _ZN5mygpo8Settings8finishedEv@Base 1.0.9
 _ZN5mygpo8SettingsC1EP13QNetworkReplyP7QObject@Base 1.0.9
 _ZN5mygpo8SettingsC2EP13QNetworkReplyP7QObject@Base 1.0.9
 _ZN5mygpo8SettingsD0Ev@Base 1.0.9
 _ZN5mygpo8SettingsD1Ev@Base 1.0.9
 _ZN5mygpo8SettingsD2Ev@Base 1.0.9
 _ZN7QString7compareERKS_13QLatin1StringN2Qt15CaseSensitivityE@Base 1.0.9
 _ZN7QStringC1E13QLatin1String@Base 1.0.9
 _ZN7QStringC1ERKS_@Base 1.0.9
 _ZN7QStringC1Ev@Base 1.0.9
 _ZN7QStringC2E13QLatin1String@Base 1.0.9
 _ZN7QStringC2ERKS_@Base 1.0.9
 _ZN7QStringC2Ev@Base 1.0.9
 _ZN7QStringD1Ev@Base 1.0.9
 _ZN7QStringD2Ev@Base 1.0.9
 _ZN7QStringaSEOS_@Base 1.0.9
 _ZN7QStringpLERKS_@Base 1.0.9
 _ZN8QVariant7PrivateC1ERKS0_@Base 1.0.9
 _ZN8QVariant7PrivateC1Ev@Base 1.0.9
 _ZN8QVariant7PrivateC2ERKS0_@Base 1.0.9
 _ZN8QVariant7PrivateC2Ev@Base 1.0.9
 _ZN8QVariant8data_ptrEv@Base 1.0.9
 _ZN8QVariant8setValueI14QSharedPointerIN5mygpo13EpisodeActionEEEEvRKT_@Base 1.0.9
 _ZN8QVariant8setValueI14QSharedPointerIN5mygpo3TagEEEEvRKT_@Base 1.0.9
 _ZN8QVariant8setValueI14QSharedPointerIN5mygpo6DeviceEEEEvRKT_@Base 1.0.9
 _ZN8QVariant8setValueI14QSharedPointerIN5mygpo7EpisodeEEEEvRKT_@Base 1.0.9
 _ZN8QVariant8setValueI14QSharedPointerIN5mygpo7PodcastEEEEvRKT_@Base 1.0.9
 _ZN8QVariantC1Ev@Base 1.0.9
 _ZN8QVariantC2Ev@Base 1.0.9
 _ZN8QVariantaSEOS_@Base 1.0.9
 _ZN9QDateTime4swapERS_@Base 1.0.9
 _ZN9QDateTimeaSEOS_@Base 1.0.9
 _ZNK5mygpo10DeviceList10metaObjectEv@Base 1.0.9
 _ZNK5mygpo10DeviceList11devicesListEv@Base 1.0.9
 _ZNK5mygpo10DeviceList7devicesEv@Base 1.0.9
 _ZNK5mygpo11EpisodeList10metaObjectEv@Base 1.0.9
 _ZNK5mygpo11EpisodeList4listEv@Base 1.0.9
 _ZNK5mygpo11EpisodeList8episodesEv@Base 1.0.9
 _ZNK5mygpo11PodcastList10metaObjectEv@Base 1.0.9
 _ZNK5mygpo11PodcastList4listEv@Base 1.0.9
 _ZNK5mygpo11PodcastList8podcastsEv@Base 1.0.9
 _ZNK5mygpo13DeviceUpdates10metaObjectEv@Base 1.0.9
 _ZNK5mygpo13DeviceUpdates10removeListEv@Base 1.0.9
 _ZNK5mygpo13DeviceUpdates10updateListEv@Base 1.0.9
 _ZNK5mygpo13DeviceUpdates3addEv@Base 1.0.9
 _ZNK5mygpo13DeviceUpdates6removeEv@Base 1.0.9
 _ZNK5mygpo13DeviceUpdates6updateEv@Base 1.0.9
 _ZNK5mygpo13DeviceUpdates7addListEv@Base 1.0.9
 _ZNK5mygpo13DeviceUpdates9timestampEv@Base 1.0.9
 _ZNK5mygpo13EpisodeAction10deviceNameEv@Base 1.0.9
 _ZNK5mygpo13EpisodeAction10episodeUrlEv@Base 1.0.9
 _ZNK5mygpo13EpisodeAction10metaObjectEv@Base 1.0.9
 _ZNK5mygpo13EpisodeAction10podcastUrlEv@Base 1.0.9
 _ZNK5mygpo13EpisodeAction5totalEv@Base 1.0.9
 _ZNK5mygpo13EpisodeAction6actionEv@Base 1.0.9
 _ZNK5mygpo13EpisodeAction7startedEv@Base 1.0.9
 _ZNK5mygpo13EpisodeAction8positionEv@Base 1.0.9
 _ZNK5mygpo13EpisodeAction9timestampEv@Base 1.0.9
 _ZNK5mygpo15AddRemoveResult10metaObjectEv@Base 1.0.9
 _ZNK5mygpo15AddRemoveResult10updateUrlsEv@Base 1.0.9
 _ZNK5mygpo15AddRemoveResult14updateUrlsListEv@Base 1.0.9
 _ZNK5mygpo15AddRemoveResult9timestampEv@Base 1.0.9
 _ZNK5mygpo16DeviceSyncResult10metaObjectEv@Base 1.0.9
 _ZNK5mygpo16DeviceSyncResult12synchronizedEv@Base 1.0.9
 _ZNK5mygpo16DeviceSyncResult15notSynchronizedEv@Base 1.0.9
 _ZNK5mygpo16DeviceSyncResult16synchronizedListEv@Base 1.0.9
 _ZNK5mygpo16DeviceSyncResult19notSynchronizedListEv@Base 1.0.9
 _ZNK5mygpo17EpisodeActionList10metaObjectEv@Base 1.0.9
 _ZNK5mygpo17EpisodeActionList14episodeActionsEv@Base 1.0.9
 _ZNK5mygpo17EpisodeActionList4listEv@Base 1.0.9
 _ZNK5mygpo17EpisodeActionList9timestampEv@Base 1.0.9
 _ZNK5mygpo3Tag10metaObjectEv@Base 1.0.9
 _ZNK5mygpo3Tag3tagEv@Base 1.0.9
 _ZNK5mygpo3Tag5usageEv@Base 1.0.9
 _ZNK5mygpo6Config12majorVersionEv@Base 1.0.9
 _ZNK5mygpo6Config12minorVersionEv@Base 1.0.9
 _ZNK5mygpo6Config12mygpoBaseUrlEv@Base 1.0.9
 _ZNK5mygpo6Config12patchVersionEv@Base 1.0.9
 _ZNK5mygpo6Config15userAgentPrefixEv@Base 1.0.9
 _ZNK5mygpo6Config7versionEv@Base 1.0.9
 _ZNK5mygpo6Config9userAgentEv@Base 1.0.9
 _ZNK5mygpo6Device10metaObjectEv@Base 1.0.9
 _ZNK5mygpo6Device13subscriptionsEv@Base 1.0.9
 _ZNK5mygpo6Device2idEv@Base 1.0.9
 _ZNK5mygpo6Device4typeEv@Base 1.0.9
 _ZNK5mygpo6Device7captionEv@Base 1.0.9
 _ZNK5mygpo7Episode10metaObjectEv@Base 1.0.9
 _ZNK5mygpo7Episode10podcastUrlEv@Base 1.0.9
 _ZNK5mygpo7Episode11descriptionEv@Base 1.0.9
 _ZNK5mygpo7Episode12podcastTitleEv@Base 1.0.9
 _ZNK5mygpo7Episode3urlEv@Base 1.0.9
 _ZNK5mygpo7Episode5titleEv@Base 1.0.9
 _ZNK5mygpo7Episode6statusEv@Base 1.0.9
 _ZNK5mygpo7Episode7websiteEv@Base 1.0.9
 _ZNK5mygpo7Episode8mygpoUrlEv@Base 1.0.9
 _ZNK5mygpo7Episode8releasedEv@Base 1.0.9
 _ZNK5mygpo7Podcast10metaObjectEv@Base 1.0.9
 _ZNK5mygpo7Podcast11descriptionEv@Base 1.0.9
 _ZNK5mygpo7Podcast11subscribersEv@Base 1.0.9
 _ZNK5mygpo7Podcast19subscribersLastWeekEv@Base 1.0.9
 _ZNK5mygpo7Podcast3urlEv@Base 1.0.9
 _ZNK5mygpo7Podcast5titleEv@Base 1.0.9
 _ZNK5mygpo7Podcast7logoUrlEv@Base 1.0.9
 _ZNK5mygpo7Podcast7websiteEv@Base 1.0.9
 _ZNK5mygpo7Podcast8mygpoUrlEv@Base 1.0.9
 _ZNK5mygpo7TagList10metaObjectEv@Base 1.0.9
 _ZNK5mygpo7TagList4listEv@Base 1.0.9
 _ZNK5mygpo7TagList4tagsEv@Base 1.0.9
 _ZNK5mygpo8Settings10metaObjectEv@Base 1.0.9
 _ZNK5mygpo8Settings8settingsEv@Base 1.0.9
 _ZNK7QString3argEiii5QChar@Base 1.0.9
 _ZNK8QVariant10isDetachedEv@Base 1.0.9
 _ZNK8QVariant5valueI14QSharedPointerIN5mygpo13EpisodeActionEEEET_v@Base 1.0.9
 _ZNK8QVariant5valueI14QSharedPointerIN5mygpo3TagEEEET_v@Base 1.0.9
 _ZNK8QVariant5valueI14QSharedPointerIN5mygpo7EpisodeEEEET_v@Base 1.0.9
 _ZNK8QVariant5valueI14QSharedPointerIN5mygpo7PodcastEEEET_v@Base 1.0.9
 _ZNK8QVariant7isValidEv@Base 1.0.9
 _ZNK8QVarianteqERKS_@Base 1.0.9
 _ZNKR7QString11toLocal8BitEv@Base 1.0.9
 _ZNKR7QString8toLatin1Ev@Base 1.0.9
 _ZNO7QString11toLocal8BitEv@Base 1.0.9
 _ZNO7QString8toLatin1Ev@Base 1.0.9
 _ZNSt13__atomic_baseIiEmmEv@Base 1.0.9
 _ZNSt13__atomic_baseIiEppEv@Base 1.0.9
 _ZSt4moveIRN8QVariant7PrivateEEONSt16remove_referenceIT_E4typeEOS4_@Base 1.0.9
 _ZSt4swapIN8QVariant7PrivateEENSt9enable_ifIXsrSt6__and_IJSt6__not_ISt15__is_tuple_likeIT_EESt21is_move_constructibleIS6_ESt18is_move_assignableIS6_EEE5valueEvE4typeERS6_SG_@Base 1.0.9
 _ZTIN5mygpo10DeviceListE@Base 1.0.9
 _ZTIN5mygpo11EpisodeListE@Base 1.0.9
 _ZTIN5mygpo11PodcastListE@Base 1.0.9
 _ZTIN5mygpo13DeviceUpdatesE@Base 1.0.9
 _ZTIN5mygpo13EpisodeActionE@Base 1.0.9
 _ZTIN5mygpo15AddRemoveResultE@Base 1.0.9
 _ZTIN5mygpo16DeviceSyncResultE@Base 1.0.9
 _ZTIN5mygpo17EpisodeActionListE@Base 1.0.9
 _ZTIN5mygpo3TagE@Base 1.0.9
 _ZTIN5mygpo6DeviceE@Base 1.0.9
 _ZTIN5mygpo7EpisodeE@Base 1.0.9
 _ZTIN5mygpo7PodcastE@Base 1.0.9
 _ZTIN5mygpo7TagListE@Base 1.0.9
 _ZTIN5mygpo8SettingsE@Base 1.0.9
 _ZTSN5mygpo10DeviceListE@Base 1.0.9
 _ZTSN5mygpo11EpisodeListE@Base 1.0.9
 _ZTSN5mygpo11PodcastListE@Base 1.0.9
 _ZTSN5mygpo13DeviceUpdatesE@Base 1.0.9
 _ZTSN5mygpo13EpisodeActionE@Base 1.0.9
 _ZTSN5mygpo15AddRemoveResultE@Base 1.0.9
 _ZTSN5mygpo16DeviceSyncResultE@Base 1.0.9
 _ZTSN5mygpo17EpisodeActionListE@Base 1.0.9
 _ZTSN5mygpo3TagE@Base 1.0.9
 _ZTSN5mygpo6DeviceE@Base 1.0.9
 _ZTSN5mygpo7EpisodeE@Base 1.0.9
 _ZTSN5mygpo7PodcastE@Base 1.0.9
 _ZTSN5mygpo7TagListE@Base 1.0.9
 _ZTSN5mygpo8SettingsE@Base 1.0.9
 _ZTVN5mygpo10DeviceListE@Base 1.0.9
 _ZTVN5mygpo11EpisodeListE@Base 1.0.9
 _ZTVN5mygpo11PodcastListE@Base 1.0.9
 _ZTVN5mygpo13DeviceUpdatesE@Base 1.0.9
 _ZTVN5mygpo13EpisodeActionE@Base 1.0.9
 _ZTVN5mygpo15AddRemoveResultE@Base 1.0.9
 _ZTVN5mygpo16DeviceSyncResultE@Base 1.0.9
 _ZTVN5mygpo17EpisodeActionListE@Base 1.0.9
 _ZTVN5mygpo3TagE@Base 1.0.9
 _ZTVN5mygpo6DeviceE@Base 1.0.9
 _ZTVN5mygpo7EpisodeE@Base 1.0.9
 _ZTVN5mygpo7PodcastE@Base 1.0.9
 _ZTVN5mygpo7TagListE@Base 1.0.9
 _ZTVN5mygpo8SettingsE@Base 1.0.9
